target datalayout = "e-m:e-p270:32:32-p271:32:32-p272:64:64-i64:64-i128:128-f80:128-n8:16:32:64-S128"
target triple = "x86_64-pc-linux-gnu"

%struct.repository = type { ptr, ptr, ptr, ptr, ptr, %struct.strmap, %struct.strmap, %struct.repo_path_cache, ptr, ptr, ptr, ptr, %struct.repo_settings, ptr, ptr, ptr, ptr, ptr, ptr, i32, i32, i32, ptr, ptr, i32, i32, i8 }
%struct.strmap = type { %struct.hashmap, ptr, i8 }
%struct.hashmap = type { ptr, ptr, ptr, i32, i32, i32, i32, i8 }
%struct.repo_path_cache = type { ptr, ptr, ptr, ptr, ptr, ptr, ptr }
%struct.repo_settings = type { i32, i32, i32, i32, i32, i32, i32, i32, i32, i32, i32, i32, ptr, i32, i32, i32, i32, i32, i32, i32, i64, i64, i64 }
%struct.fsmonitor_settings = type { i32, i32, ptr }

; Function Attrs: nounwind uwtable
define internal ptr @alloc_settings() #0 {
  %1 = alloca ptr, align 8
  call void @llvm.lifetime.start.p0(i64 8, ptr %1) #7
  %2 = call ptr @xcalloc(i64 noundef 1, i64 noundef 16)
  store ptr %2, ptr %1, align 8, !tbaa !38
  %3 = load ptr, ptr %1, align 8, !tbaa !38
  %4 = getelementptr inbounds nuw %struct.fsmonitor_settings, ptr %3, i32 0, i32 0
  store i32 0, ptr %4, align 8, !tbaa !30
  %5 = load ptr, ptr %1, align 8, !tbaa !38
  %6 = getelementptr inbounds nuw %struct.fsmonitor_settings, ptr %5, i32 0, i32 1
  store i32 0, ptr %6, align 4, !tbaa !36
  %7 = load ptr, ptr %1, align 8, !tbaa !38
  call void @llvm.lifetime.end.p0(i64 8, ptr %1) #7
  ret ptr %7
}

; Function Attrs: nounwind uwtable
define dso_local void @fsm_settings__set_disabled(ptr noundef %0) #0 {
  %2 = alloca ptr, align 8
  store ptr %0, ptr %2, align 8, !tbaa !4
  %3 = load ptr, ptr %2, align 8, !tbaa !4
  %4 = getelementptr inbounds nuw %struct.repository, ptr %3, i32 0, i32 12
  %5 = getelementptr inbounds nuw %struct.repo_settings, ptr %4, i32 0, i32 12
  %6 = load ptr, ptr %5, align 8, !tbaa !9
  %7 = icmp ne ptr %6, null
  br i1 %7, label %13, label %8

8:                                                ; preds = %1
  %9 = call ptr @alloc_settings()
  %10 = load ptr, ptr %2, align 8, !tbaa !4
  %11 = getelementptr inbounds nuw %struct.repository, ptr %10, i32 0, i32 12
  %12 = getelementptr inbounds nuw %struct.repo_settings, ptr %11, i32 0, i32 12
  store ptr %9, ptr %12, align 8, !tbaa !9
  br label %13

13:                                               ; preds = %8, %1
  %14 = load ptr, ptr %2, align 8, !tbaa !4
  %15 = getelementptr inbounds nuw %struct.repository, ptr %14, i32 0, i32 12
  %16 = getelementptr inbounds nuw %struct.repo_settings, ptr %15, i32 0, i32 12
  %17 = load ptr, ptr %16, align 8, !tbaa !9
  %18 = getelementptr inbounds nuw %struct.fsmonitor_settings, ptr %17, i32 0, i32 0
  store i32 0, ptr %18, align 8, !tbaa !30
  %19 = load ptr, ptr %2, align 8, !tbaa !4
  %20 = getelementptr inbounds nuw %struct.repository, ptr %19, i32 0, i32 12
  %21 = getelementptr inbounds nuw %struct.repo_settings, ptr %20, i32 0, i32 12
  %22 = load ptr, ptr %21, align 8, !tbaa !9
  %23 = getelementptr inbounds nuw %struct.fsmonitor_settings, ptr %22, i32 0, i32 1
  store i32 1, ptr %23, align 4, !tbaa !36
  br label %24

24:                                               ; preds = %13
  %25 = load ptr, ptr %2, align 8, !tbaa !4
  %26 = getelementptr inbounds nuw %struct.repository, ptr %25, i32 0, i32 12
  %27 = getelementptr inbounds nuw %struct.repo_settings, ptr %26, i32 0, i32 12
  %28 = load ptr, ptr %27, align 8, !tbaa !9
  %29 = getelementptr inbounds nuw %struct.fsmonitor_settings, ptr %28, i32 0, i32 2
  %30 = load ptr, ptr %29, align 8, !tbaa !35
  call void @free(ptr noundef %30) #7
  %31 = load ptr, ptr %2, align 8, !tbaa !4
  %32 = getelementptr inbounds nuw %struct.repository, ptr %31, i32 0, i32 12
  %33 = getelementptr inbounds nuw %struct.repo_settings, ptr %32, i32 0, i32 12
  %34 = load ptr, ptr %33, align 8, !tbaa !9
  %35 = getelementptr inbounds nuw %struct.fsmonitor_settings, ptr %34, i32 0, i32 2
  store ptr null, ptr %35, align 8, !tbaa !35
  br label %36

36:                                               ; preds = %24
  ret void
}