; Function Attrs: nounwind uwtable
define dso_local void @fsm_settings__set_disabled(ptr noundef captures(none) %0) local_unnamed_addr #0 {
  %2 = getelementptr inbounds nuw i8, ptr %0, i64 304
  %3 = load ptr, ptr %2, align 8, !tbaa !4
  %.not = icmp eq ptr %3, null
  br i1 %.not, label %4, label %7

4:                                                ; preds = %1
  %5 = tail call noundef ptr @xcalloc(i64 noundef 1, i64 noundef 16) #9
  store i32 0, ptr %5, align 8, !tbaa !28
  %6 = getelementptr inbounds nuw i8, ptr %5, i64 4
  store i32 0, ptr %6, align 4, !tbaa !33
  store ptr %5, ptr %2, align 8, !tbaa !4
  br label %7

7:                                                ; preds = %4, %1
  %8 = phi ptr [ %5, %4 ], [ %3, %1 ]
  store i32 0, ptr %8, align 8, !tbaa !28
  %9 = getelementptr inbounds nuw i8, ptr %8, i64 4
  store i32 1, ptr %9, align 4, !tbaa !33
  %10 = getelementptr inbounds nuw i8, ptr %8, i64 8
  %11 = load ptr, ptr %10, align 8, !tbaa !34
  tail call void @free(ptr noundef %11) #9
  %12 = load ptr, ptr %2, align 8, !tbaa !4
  %13 = getelementptr inbounds nuw i8, ptr %12, i64 8
  store ptr null, ptr %13, align 8, !tbaa !34
  ret void
}